target datalayout = "e-m:e-p270:32:32-p271:32:32-p272:64:64-i64:64-i128:128-f80:128-n8:16:32:64-S128"
target triple = "x86_64-pc-linux-gnu"

%union.EX_STYPE = type { ptr }
%struct.Expr_s = type { ptr, ptr, [10 x ptr], ptr, ptr, ptr, ptr, ptr, ptr, %struct.agxbuf, %union.EX_STYPE, %struct.Exid_s, [512 x i8], ptr, i32, i32, i32, i64, i64, i32 }
%struct.agxbuf = type { %union.anon.10 }
%union.anon.10 = type { %struct.anon.11 }
%struct.anon.11 = type { ptr, i64, i64, [7 x i8], i8 }
%struct.Exid_s = type { %struct.dtlink_s_, i64, i64, i64, i64, ptr, ptr, [32 x i8] }
%struct.dtlink_s_ = type { ptr, %union.anon.12 }
%union.anon.12 = type { ptr }

@.str.49 = private unnamed_addr constant [5 x i8] c"%s%s\00", align 1

; Function Attrs: nounwind uwtable
define internal ptr @str_add(ptr noundef %0, ptr noundef %1, ptr noundef %2) #0 {
  %4 = alloca ptr, align 8
  %5 = alloca ptr, align 8
  %6 = alloca ptr, align 8
  %7 = alloca ptr, align 8
  %8 = alloca i64, align 8
  %9 = alloca ptr, align 8
  %10 = alloca i32, align 4
  store ptr %0, ptr %5, align 8, !tbaa !3
  store ptr %1, ptr %6, align 8, !tbaa !42
  store ptr %2, ptr %7, align 8, !tbaa !42
  call void @llvm.lifetime.start.p0(i64 8, ptr %8) #15
  %11 = load ptr, ptr %6, align 8, !tbaa !42
  %12 = call i64 @strlen(ptr noundef %11) #18
  %13 = load ptr, ptr %7, align 8, !tbaa !42
  %14 = call i64 @strlen(ptr noundef %13) #18
  %15 = add i64 %12, %14
  %16 = add i64 %15, 1
  store i64 %16, ptr %8, align 8, !tbaa !45
  call void @llvm.lifetime.start.p0(i64 8, ptr %9) #15
  %17 = load ptr, ptr %5, align 8, !tbaa !3
  %18 = getelementptr inbounds nuw %struct.Expr_s, ptr %17, i32 0, i32 4
  %19 = load ptr, ptr %18, align 8, !tbaa !74
  %20 = load i64, ptr %8, align 8, !tbaa !45
  %21 = call ptr @vmalloc(ptr noundef %19, i64 noundef %20)
  store ptr %21, ptr %9, align 8, !tbaa !42
  %22 = load ptr, ptr %9, align 8, !tbaa !42
  %23 = icmp eq ptr %22, null
  br i1 %23, label %24, label %26

24:                                               ; preds = %3
  %25 = call ptr @exnospace()
  store ptr %25, ptr %4, align 8
  store i32 1, ptr %10, align 4
  br label %33

26:                                               ; preds = %3
  %27 = load ptr, ptr %9, align 8, !tbaa !42
  %28 = load i64, ptr %8, align 8, !tbaa !45
  %29 = load ptr, ptr %6, align 8, !tbaa !42
  %30 = load ptr, ptr %7, align 8, !tbaa !42
  %31 = call i32 (ptr, i64, ptr, ...) @snprintf(ptr noundef %27, i64 noundef %28, ptr noundef @.str.49, ptr noundef %29, ptr noundef %30) #15
  %32 = load ptr, ptr %9, align 8, !tbaa !42
  store ptr %32, ptr %4, align 8
  store i32 1, ptr %10, align 4
  br label %33

33:                                               ; preds = %26, %24
  call void @llvm.lifetime.end.p0(i64 8, ptr %9) #15
  call void @llvm.lifetime.end.p0(i64 8, ptr %8) #15
  %34 = load ptr, ptr %4, align 8
  ret ptr %34
}