; Function Attrs: nounwind uwtable
define internal fastcc ptr @str_add(ptr %.104.val, ptr noundef %0, ptr noundef %1) unnamed_addr #0 {
  %3 = tail call i64 @strlen(ptr noundef nonnull dereferenceable(1) %0) #30
  %4 = tail call i64 @strlen(ptr noundef nonnull dereferenceable(1) %1) #30
  %5 = add i64 %3, 1
  %6 = add i64 %5, %4
  %7 = tail call ptr @vmalloc(ptr noundef %.104.val, i64 noundef %6) #25
  %8 = icmp eq ptr %7, null
  br i1 %8, label %9, label %11

9:                                                ; preds = %2
  %10 = tail call ptr @exnospace() #25
  br label %13

11:                                               ; preds = %2
  %12 = tail call i32 (ptr, i64, ptr, ...) @snprintf(ptr noundef nonnull %7, i64 noundef %6, ptr noundef nonnull @.str.49, ptr noundef nonnull %0, ptr noundef nonnull %1) #25
  br label %13

13:                                               ; preds = %11, %9
  %.0 = phi ptr [ %10, %9 ], [ %7, %11 ]
  ret ptr %.0
}